target datalayout = "e-m:e-p270:32:32-p271:32:32-p272:64:64-i64:64-i128:128-f80:128-n8:16:32:64-S128"
target triple = "x86_64-pc-linux-gnu"

%"class.tbb::detail::d1::wait_context" = type { i64, %"struct.std::atomic.142" }
%"struct.std::atomic.142" = type { %"struct.std::__atomic_base.143" }
%"struct.std::__atomic_base.143" = type { i64 }
%"class.tbb::detail::d1::task" = type { ptr, %"class.tbb::detail::d1::task_traits", [6 x i64] }
%"class.tbb::detail::d1::task_traits" = type { i64 }
%"class.tbb::detail::d2::for_each_root_task_base.551" = type <{ %"class.tbb::detail::d1::task", ptr, ptr, ptr, ptr, ptr, [24 x i8] }>

; Function Attrs: mustprogress nounwind uwtable
define linkonce_odr void @_ZN3tbb6detail2d120call_itt_task_notifyENS1_11notify_typeEPv(i32 noundef %0, ptr noundef %1) #1 comdat {
  %3 = alloca i32, align 4
  %4 = alloca ptr, align 8
  store i32 %0, ptr %3, align 4
  store ptr %1, ptr %4, align 8
  ret void
}

; Function Attrs: mustprogress uwtable
define linkonce_odr void @_ZN3tbb6detail2d112wait_context13add_referenceEl(ptr noundef nonnull align 8 dereferenceable(16) %0, i64 noundef %1) #0 comdat align 2 {
  %3 = alloca ptr, align 8
  %4 = alloca i64, align 8
  %5 = alloca i32, align 4
  %6 = alloca i64, align 8
  %7 = alloca i64, align 8
  %8 = alloca ptr, align 8
  %9 = alloca i64, align 8
  %10 = alloca i64, align 8
  %11 = alloca i64, align 8
  store ptr %0, ptr %8, align 8
  store i64 %1, ptr %9, align 8
  %12 = load ptr, ptr %8, align 8
  call void @_ZN3tbb6detail2d120call_itt_task_notifyENS1_11notify_typeEPv(i32 noundef 3, ptr noundef %12)
  %13 = getelementptr inbounds nuw %"class.tbb::detail::d1::wait_context", ptr %12, i32 0, i32 1
  %14 = load i64, ptr %9, align 8
  store ptr %13, ptr %3, align 8
  store i64 %14, ptr %4, align 8
  store i32 5, ptr %5, align 4
  %15 = load ptr, ptr %3, align 8
  %16 = load i32, ptr %5, align 4
  %17 = load i64, ptr %4, align 8
  store i64 %17, ptr %6, align 8
  switch i32 %16, label %18 [
    i32 1, label %21
    i32 2, label %21
    i32 3, label %24
    i32 4, label %27
    i32 5, label %30
  ]

18:                                               ; preds = %2
  %19 = load i64, ptr %6, align 8
  %20 = atomicrmw add ptr %15, i64 %19 monotonic, align 8
  store i64 %20, ptr %7, align 8
  br label %33

21:                                               ; preds = %2, %2
  %22 = load i64, ptr %6, align 8
  %23 = atomicrmw add ptr %15, i64 %22 acquire, align 8
  store i64 %23, ptr %7, align 8
  br label %33

24:                                               ; preds = %2
  %25 = load i64, ptr %6, align 8
  %26 = atomicrmw add ptr %15, i64 %25 release, align 8
  store i64 %26, ptr %7, align 8
  br label %33

27:                                               ; preds = %2
  %28 = load i64, ptr %6, align 8
  %29 = atomicrmw add ptr %15, i64 %28 acq_rel, align 8
  store i64 %29, ptr %7, align 8
  br label %33

30:                                               ; preds = %2
  %31 = load i64, ptr %6, align 8
  %32 = atomicrmw add ptr %15, i64 %31 seq_cst, align 8
  store i64 %32, ptr %7, align 8
  br label %33

33:                                               ; preds = %30, %27, %24, %21, %18
  %34 = load i64, ptr %7, align 8
  %35 = load i64, ptr %9, align 8
  %36 = add i64 %34, %35
  store i64 %36, ptr %10, align 8
  %37 = load i64, ptr %10, align 8
  %38 = icmp ne i64 %37, 0
  br i1 %38, label %42, label %39

39:                                               ; preds = %33
  %40 = ptrtoint ptr %12 to i64
  store i64 %40, ptr %11, align 8
  %41 = load i64, ptr %11, align 8
  call void @_ZN3tbb6detail2r114notify_waitersEm(i64 noundef %41)
  br label %42

42:                                               ; preds = %39, %33
  ret void
}

; Function Attrs: mustprogress uwtable
define linkonce_odr void @_ZN3tbb6detail2d112wait_context7releaseEj(ptr noundef nonnull align 8 dereferenceable(16) %0, i32 noundef %1) #0 comdat align 2 {
  %3 = alloca ptr, align 8
  %4 = alloca i32, align 4
  store ptr %0, ptr %3, align 8
  store i32 %1, ptr %4, align 4
  %5 = load ptr, ptr %3, align 8
  %6 = load i32, ptr %4, align 4
  %7 = zext i32 %6 to i64
  %8 = sub nsw i64 0, %7
  call void @_ZN3tbb6detail2d112wait_context13add_referenceEl(ptr noundef nonnull align 8 dereferenceable(16) %5, i64 noundef %8)
  ret void
}

; Function Attrs: mustprogress uwtable
define internal noundef ptr @"_ZN3tbb6detail2d223for_each_root_task_baseIPN32pxrInternal_v0_24__pxrReserved__7GfVec3fEZNS3_12_GLOBAL__N_116_SkinningAdapter26_DeformNormalsWithSkinningERKNS3_10GfMatrix4dEE3$_0S4_E6cancelERNS0_2d114execution_dataE"(ptr noundef nonnull align 64 dereferenceable(105) %0, ptr noundef nonnull align 8 dereferenceable(12) %1) unnamed_addr #0 align 2 {
  %3 = alloca ptr, align 8
  %4 = alloca ptr, align 8
  store ptr %0, ptr %3, align 8
  store ptr %1, ptr %4, align 8
  %5 = load ptr, ptr %3, align 8
  %6 = getelementptr inbounds nuw %"class.tbb::detail::d2::for_each_root_task_base.551", ptr %5, i32 0, i32 3
  %7 = load ptr, ptr %6, align 16
  call void @_ZN3tbb6detail2d112wait_context7releaseEj(ptr noundef nonnull align 8 dereferenceable(16) %7, i32 noundef 1)
  ret ptr null
}